target datalayout = "e-m:e-p270:32:32-p271:32:32-p272:64:64-i64:64-i128:128-f80:128-n8:16:32:64-S128"
target triple = "x86_64-pc-linux-gnu"

%"class.std::basic_string_view" = type { i64, ptr }

; Function Attrs: mustprogress nounwind uwtable
define internal noundef zeroext i1 @_ZL28Shell_CharIsMakeVariableNamec(i8 noundef signext %0) #6 {
  %2 = alloca i8, align 1
  store i8 %0, ptr %2, align 1
  %3 = load i8, ptr %2, align 1
  %4 = icmp ne i8 %3, 0
  br i1 %4, label %5, label %16

5:                                                ; preds = %1
  %6 = load i8, ptr %2, align 1
  %7 = sext i8 %6 to i32
  %8 = icmp eq i32 %7, 95
  br i1 %8, label %14, label %9

9:                                                ; preds = %5
  %10 = load i8, ptr %2, align 1
  %11 = sext i8 %10 to i32
  %12 = call i32 @isalpha(i32 noundef %11) #13
  %13 = icmp ne i32 %12, 0
  br label %14

14:                                               ; preds = %9, %5
  %15 = phi i1 [ true, %5 ], [ %13, %9 ]
  br label %16

16:                                               ; preds = %14, %1
  %17 = phi i1 [ false, %1 ], [ %15, %14 ]
  ret i1 %17
}

; Function Attrs: mustprogress nounwind uwtable
define linkonce_odr dso_local noundef nonnull align 1 dereferenceable(1) ptr @_ZNKSt17basic_string_viewIcSt11char_traitsIcEEixEm(ptr noundef nonnull align 8 dereferenceable(16) %0, i64 noundef %1) #6 comdat align 2 {
  %3 = alloca ptr, align 8
  %4 = alloca i64, align 8
  store ptr %0, ptr %3, align 8
  store i64 %1, ptr %4, align 8
  %5 = load ptr, ptr %3, align 8
  br label %6

6:                                                ; preds = %2
  br label %7

7:                                                ; preds = %6
  br label %8

8:                                                ; preds = %7
  %9 = getelementptr inbounds %"class.std::basic_string_view", ptr %5, i32 0, i32 1
  %10 = load ptr, ptr %9, align 8
  %11 = load i64, ptr %4, align 8
  %12 = getelementptr inbounds i8, ptr %10, i64 %11
  ret ptr %12
}

; Function Attrs: mustprogress nounwind uwtable
define linkonce_odr dso_local noundef i64 @_ZNKSt17basic_string_viewIcSt11char_traitsIcEE4sizeEv(ptr noundef nonnull align 8 dereferenceable(16) %0) #6 comdat align 2 {
  %2 = alloca ptr, align 8
  store ptr %0, ptr %2, align 8
  %3 = load ptr, ptr %2, align 8
  %4 = getelementptr inbounds %"class.std::basic_string_view", ptr %3, i32 0, i32 0
  %5 = load i64, ptr %4, align 8
  ret i64 %5
}

; Function Attrs: mustprogress uwtable
define dso_local noundef ptr @_ZN17cmOutputConverter23Shell_SkipMakeVariablesEPKcS1_(ptr noundef %0, ptr noundef %1) #4 align 2 {
  %3 = alloca ptr, align 8
  %4 = alloca ptr, align 8
  %5 = alloca ptr, align 8
  store ptr %0, ptr %3, align 8
  store ptr %1, ptr %4, align 8
  br label %6

6:                                                ; preds = %59, %2
  %7 = load ptr, ptr %3, align 8
  %8 = load ptr, ptr %4, align 8
  %9 = icmp ne ptr %7, %8
  br i1 %9, label %10, label %28

10:                                               ; preds = %6
  %11 = load ptr, ptr %3, align 8
  %12 = getelementptr inbounds i8, ptr %11, i64 1
  %13 = load ptr, ptr %4, align 8
  %14 = icmp ne ptr %12, %13
  br i1 %14, label %15, label %28

15:                                               ; preds = %10
  %16 = load ptr, ptr %3, align 8
  %17 = load i8, ptr %16, align 1
  %18 = sext i8 %17 to i32
  %19 = icmp eq i32 %18, 36
  br i1 %19, label %20, label %26

20:                                               ; preds = %15
  %21 = load ptr, ptr %3, align 8
  %22 = getelementptr inbounds i8, ptr %21, i64 1
  %23 = load i8, ptr %22, align 1
  %24 = sext i8 %23 to i32
  %25 = icmp eq i32 %24, 40
  br label %26

26:                                               ; preds = %20, %15
  %27 = phi i1 [ false, %15 ], [ %25, %20 ]
  br label %28

28:                                               ; preds = %26, %10, %6
  %29 = phi i1 [ false, %10 ], [ false, %6 ], [ %27, %26 ]
  br i1 %29, label %30, label %60

30:                                               ; preds = %28
  %31 = load ptr, ptr %3, align 8
  %32 = getelementptr inbounds i8, ptr %31, i64 2
  store ptr %32, ptr %5, align 8
  br label %33

33:                                               ; preds = %43, %30
  %34 = load ptr, ptr %5, align 8
  %35 = load ptr, ptr %4, align 8
  %36 = icmp ne ptr %34, %35
  br i1 %36, label %37, label %41

37:                                               ; preds = %33
  %38 = load ptr, ptr %5, align 8
  %39 = load i8, ptr %38, align 1
  %40 = call noundef zeroext i1 @_ZL28Shell_CharIsMakeVariableNamec(i8 noundef signext %39)
  br label %41

41:                                               ; preds = %37, %33
  %42 = phi i1 [ false, %33 ], [ %40, %37 ]
  br i1 %42, label %43, label %46

43:                                               ; preds = %41
  %44 = load ptr, ptr %5, align 8
  %45 = getelementptr inbounds i8, ptr %44, i32 1
  store ptr %45, ptr %5, align 8
  br label %33, !llvm.loop !14

46:                                               ; preds = %41
  %47 = load ptr, ptr %5, align 8
  %48 = load ptr, ptr %4, align 8
  %49 = icmp ne ptr %47, %48
  br i1 %49, label %50, label %58

50:                                               ; preds = %46
  %51 = load ptr, ptr %5, align 8
  %52 = load i8, ptr %51, align 1
  %53 = sext i8 %52 to i32
  %54 = icmp eq i32 %53, 41
  br i1 %54, label %55, label %58

55:                                               ; preds = %50
  %56 = load ptr, ptr %5, align 8
  %57 = getelementptr inbounds i8, ptr %56, i64 1
  store ptr %57, ptr %3, align 8
  br label %59

58:                                               ; preds = %50, %46
  br label %60

59:                                               ; preds = %55
  br label %6, !llvm.loop !15

60:                                               ; preds = %58, %28
  %61 = load ptr, ptr %3, align 8
  ret ptr %61
}

; Function Attrs: mustprogress nounwind uwtable
define linkonce_odr dso_local noundef ptr @_ZNKSt17basic_string_viewIcSt11char_traitsIcEE3endEv(ptr noundef nonnull align 8 dereferenceable(16) %0) #6 comdat align 2 {
  %2 = alloca ptr, align 8
  store ptr %0, ptr %2, align 8
  %3 = load ptr, ptr %2, align 8
  %4 = getelementptr inbounds %"class.std::basic_string_view", ptr %3, i32 0, i32 1
  %5 = load ptr, ptr %4, align 8
  %6 = getelementptr inbounds %"class.std::basic_string_view", ptr %3, i32 0, i32 0
  %7 = load i64, ptr %6, align 8
  %8 = getelementptr inbounds i8, ptr %5, i64 %7
  ret ptr %8
}

; Function Attrs: mustprogress nounwind uwtable
define linkonce_odr dso_local noundef ptr @_ZNKSt17basic_string_viewIcSt11char_traitsIcEE5beginEv(ptr noundef nonnull align 8 dereferenceable(16) %0) #6 comdat align 2 {
  %2 = alloca ptr, align 8
  store ptr %0, ptr %2, align 8
  %3 = load ptr, ptr %2, align 8
  %4 = getelementptr inbounds %"class.std::basic_string_view", ptr %3, i32 0, i32 1
  %5 = load ptr, ptr %4, align 8
  ret ptr %5
}

; Function Attrs: mustprogress nounwind uwtable
define linkonce_odr dso_local noundef zeroext i1 @_ZNKSt17basic_string_viewIcSt11char_traitsIcEE5emptyEv(ptr noundef nonnull align 8 dereferenceable(16) %0) #6 comdat align 2 {
  %2 = alloca ptr, align 8
  store ptr %0, ptr %2, align 8
  %3 = load ptr, ptr %2, align 8
  %4 = getelementptr inbounds %"class.std::basic_string_view", ptr %3, i32 0, i32 0
  %5 = load i64, ptr %4, align 8
  %6 = icmp eq i64 %5, 0
  ret i1 %6
}

; Function Attrs: mustprogress uwtable
define dso_local noundef zeroext i1 @_ZN17cmOutputConverter25Shell_ArgumentNeedsQuotesESt17basic_string_viewIcSt11char_traitsIcEEi(i64 %0, ptr %1, i32 noundef %2) #4 align 2 {
  %4 = alloca i1, align 1
  %5 = alloca %"class.std::basic_string_view", align 8
  %6 = alloca i32, align 4
  %7 = alloca ptr, align 8
  %8 = alloca ptr, align 8
  %9 = alloca i8, align 1
  %10 = getelementptr inbounds { i64, ptr }, ptr %5, i32 0, i32 0
  store i64 %0, ptr %10, align 8
  %11 = getelementptr inbounds { i64, ptr }, ptr %5, i32 0, i32 1
  store ptr %1, ptr %11, align 8
  store i32 %2, ptr %6, align 4
  %12 = call noundef zeroext i1 @_ZNKSt17basic_string_viewIcSt11char_traitsIcEE5emptyEv(ptr noundef nonnull align 8 dereferenceable(16) %5) #3
  br i1 %12, label %13, label %14

13:                                               ; preds = %3
  store i1 true, ptr %4, align 1
  br label %99

14:                                               ; preds = %3
  %15 = call noundef ptr @_ZNKSt17basic_string_viewIcSt11char_traitsIcEE5beginEv(ptr noundef nonnull align 8 dereferenceable(16) %5) #3
  store ptr %15, ptr %7, align 8
  %16 = call noundef ptr @_ZNKSt17basic_string_viewIcSt11char_traitsIcEE3endEv(ptr noundef nonnull align 8 dereferenceable(16) %5) #3
  store ptr %16, ptr %8, align 8
  br label %17

17:                                               ; preds = %41, %14
  %18 = load ptr, ptr %7, align 8
  %19 = load ptr, ptr %8, align 8
  %20 = icmp ne ptr %18, %19
  br i1 %20, label %21, label %44

21:                                               ; preds = %17
  %22 = load i32, ptr %6, align 4
  %23 = and i32 %22, 64
  %24 = icmp ne i32 %23, 0
  br i1 %24, label %25, label %34

25:                                               ; preds = %21
  %26 = load ptr, ptr %7, align 8
  %27 = load ptr, ptr %8, align 8
  %28 = call noundef ptr @_ZN17cmOutputConverter23Shell_SkipMakeVariablesEPKcS1_(ptr noundef %26, ptr noundef %27)
  store ptr %28, ptr %7, align 8
  %29 = load ptr, ptr %7, align 8
  %30 = load ptr, ptr %8, align 8
  %31 = icmp eq ptr %29, %30
  br i1 %31, label %32, label %33

32:                                               ; preds = %25
  br label %44

33:                                               ; preds = %25
  br label %34

34:                                               ; preds = %33, %21
  %35 = load ptr, ptr %7, align 8
  %36 = load i8, ptr %35, align 1
  %37 = load i32, ptr %6, align 4
  %38 = call noundef zeroext i1 @_ZN17cmOutputConverter21Shell_CharNeedsQuotesEci(i8 noundef signext %36, i32 noundef %37)
  br i1 %38, label %39, label %40

39:                                               ; preds = %34
  store i1 true, ptr %4, align 1
  br label %99

40:                                               ; preds = %34
  br label %41

41:                                               ; preds = %40
  %42 = load ptr, ptr %7, align 8
  %43 = getelementptr inbounds i8, ptr %42, i32 1
  store ptr %43, ptr %7, align 8
  br label %17, !llvm.loop !16

44:                                               ; preds = %32, %17
  %45 = load i32, ptr %6, align 4
  %46 = and i32 %45, 256
  %47 = icmp ne i32 %46, 0
  br i1 %47, label %48, label %75

48:                                               ; preds = %44
  %49 = call noundef i64 @_ZNKSt17basic_string_viewIcSt11char_traitsIcEE4sizeEv(ptr noundef nonnull align 8 dereferenceable(16) %5) #3
  %50 = icmp eq i64 %49, 1
  br i1 %50, label %51, label %75

51:                                               ; preds = %48
  %52 = call noundef nonnull align 1 dereferenceable(1) ptr @_ZNKSt17basic_string_viewIcSt11char_traitsIcEEixEm(ptr noundef nonnull align 8 dereferenceable(16) %5, i64 noundef 0) #3
  %53 = load i8, ptr %52, align 1
  store i8 %53, ptr %9, align 1
  %54 = load i8, ptr %9, align 1
  %55 = sext i8 %54 to i32
  %56 = icmp eq i32 %55, 63
  br i1 %56, label %73, label %57

57:                                               ; preds = %51
  %58 = load i8, ptr %9, align 1
  %59 = sext i8 %58 to i32
  %60 = icmp eq i32 %59, 38
  br i1 %60, label %73, label %61

61:                                               ; preds = %57
  %62 = load i8, ptr %9, align 1
  %63 = sext i8 %62 to i32
  %64 = icmp eq i32 %63, 94
  br i1 %64, label %73, label %65

65:                                               ; preds = %61
  %66 = load i8, ptr %9, align 1
  %67 = sext i8 %66 to i32
  %68 = icmp eq i32 %67, 124
  br i1 %68, label %73, label %69

69:                                               ; preds = %65
  %70 = load i8, ptr %9, align 1
  %71 = sext i8 %70 to i32
  %72 = icmp eq i32 %71, 35
  br i1 %72, label %73, label %74

73:                                               ; preds = %69, %65, %61, %57, %51
  store i1 true, ptr %4, align 1
  br label %99

74:                                               ; preds = %69
  br label %75

75:                                               ; preds = %74, %48, %44
  %76 = load i32, ptr %6, align 4
  %77 = and i32 %76, 16
  %78 = icmp ne i32 %77, 0
  br i1 %78, label %79, label %98

79:                                               ; preds = %75
  %80 = load i32, ptr %6, align 4
  %81 = and i32 %80, 1
  %82 = icmp ne i32 %81, 0
  br i1 %82, label %83, label %98

83:                                               ; preds = %79
  %84 = call noundef i64 @_ZNKSt17basic_string_viewIcSt11char_traitsIcEE4sizeEv(ptr noundef nonnull align 8 dereferenceable(16) %5) #3
  %85 = icmp ugt i64 %84, 1
  br i1 %85, label %86, label %97

86:                                               ; preds = %83
  %87 = call noundef nonnull align 1 dereferenceable(1) ptr @_ZNKSt17basic_string_viewIcSt11char_traitsIcEEixEm(ptr noundef nonnull align 8 dereferenceable(16) %5, i64 noundef 0) #3
  %88 = load i8, ptr %87, align 1
  %89 = sext i8 %88 to i32
  %90 = icmp eq i32 %89, 92
  br i1 %90, label %91, label %97

91:                                               ; preds = %86
  %92 = call noundef nonnull align 1 dereferenceable(1) ptr @_ZNKSt17basic_string_viewIcSt11char_traitsIcEEixEm(ptr noundef nonnull align 8 dereferenceable(16) %5, i64 noundef 1) #3
  %93 = load i8, ptr %92, align 1
  %94 = sext i8 %93 to i32
  %95 = icmp eq i32 %94, 92
  br i1 %95, label %96, label %97

96:                                               ; preds = %91
  store i1 true, ptr %4, align 1
  br label %99

97:                                               ; preds = %91, %86, %83
  br label %98

98:                                               ; preds = %97, %79, %75
  store i1 false, ptr %4, align 1
  br label %99

99:                                               ; preds = %98, %96, %73, %39, %13
  %100 = load i1, ptr %4, align 1
  ret i1 %100
}