; Function Attrs: mustprogress nofree nounwind willreturn memory(read) uwtable
define dso_local noundef zeroext i1 @_ZN17cmOutputConverter25Shell_ArgumentNeedsQuotesESt17basic_string_viewIcSt11char_traitsIcEEi(i64 %0, ptr readonly %1, i32 noundef %2) local_unnamed_addr #8 align 2 {
  %4 = icmp eq i64 %0, 0
  br i1 %4, label %.loopexit, label %.lr.ph

.lr.ph:                                           ; preds = %3
  %5 = getelementptr inbounds i8, ptr %1, i64 %0
  %6 = and i32 %2, 64
  %.not32 = icmp eq i32 %6, 0
  br i1 %.not32, label %.lr.ph.split.us, label %.lr.ph37.i

.lr.ph.split.us:                                  ; preds = %.lr.ph, %9
  %.02959.us = phi ptr [ %10, %9 ], [ %1, %.lr.ph ]
  %7 = load i8, ptr %.02959.us, align 1
  %8 = tail call noundef zeroext i1 @_ZN17cmOutputConverter21Shell_CharNeedsQuotesEci(i8 noundef signext %7, i32 noundef %2)
  br i1 %8, label %.loopexit, label %9

9:                                                ; preds = %.lr.ph.split.us
  %10 = getelementptr inbounds i8, ptr %.02959.us, i64 1
  %.not.us = icmp eq ptr %10, %5
  br i1 %.not.us, label %_ZN17cmOutputConverter23Shell_SkipMakeVariablesEPKcS1_.exit.thread, label %.lr.ph.split.us, !llvm.loop !18

11:                                               ; preds = %28
  br i1 %.not21.i, label %_ZN17cmOutputConverter23Shell_SkipMakeVariablesEPKcS1_.exit.thread, label %.lr.ph37.i.backedge

12:                                               ; preds = %.critedge2.i
  %13 = getelementptr inbounds i8, ptr %.030.i, i64 1
  %.not.i = icmp eq ptr %13, %5
  br i1 %.not.i, label %_ZN17cmOutputConverter23Shell_SkipMakeVariablesEPKcS1_.exit.thread, label %.lr.ph37.i.backedge

.lr.ph37.i.backedge:                              ; preds = %12, %11
  %.01836.i.be = phi ptr [ %13, %12 ], [ %14, %11 ]
  br label %.lr.ph37.i, !llvm.loop !18

.lr.ph37.i:                                       ; preds = %.lr.ph, %.lr.ph37.i.backedge
  %.01836.i = phi ptr [ %.01836.i.be, %.lr.ph37.i.backedge ], [ %1, %.lr.ph ]
  %14 = getelementptr inbounds i8, ptr %.01836.i, i64 1
  %.not21.i = icmp eq ptr %14, %5
  br i1 %.not21.i, label %_ZN17cmOutputConverter23Shell_SkipMakeVariablesEPKcS1_.exit, label %15

15:                                               ; preds = %.lr.ph37.i
  %16 = load i8, ptr %.01836.i, align 1
  %17 = icmp eq i8 %16, 36
  br i1 %17, label %18, label %_ZN17cmOutputConverter23Shell_SkipMakeVariablesEPKcS1_.exit

18:                                               ; preds = %15
  %19 = load i8, ptr %14, align 1
  %20 = icmp ne i8 %19, 40
  %21 = getelementptr inbounds i8, ptr %.01836.i, i64 2
  %.not2229.i = icmp eq ptr %21, %5
  %or.cond.i = select i1 %20, i1 true, i1 %.not2229.i
  br i1 %or.cond.i, label %_ZN17cmOutputConverter23Shell_SkipMakeVariablesEPKcS1_.exit, label %.lr.ph.i

.lr.ph.i:                                         ; preds = %18, %_ZL28Shell_CharIsMakeVariableNamec.exit.thread.i
  %.030.i = phi ptr [ %25, %_ZL28Shell_CharIsMakeVariableNamec.exit.thread.i ], [ %21, %18 ]
  %22 = load i8, ptr %.030.i, align 1
  switch i8 %22, label %_ZL28Shell_CharIsMakeVariableNamec.exit.i [
    i8 0, label %_ZN17cmOutputConverter23Shell_SkipMakeVariablesEPKcS1_.exit
    i8 95, label %_ZL28Shell_CharIsMakeVariableNamec.exit.thread.i
  ]

_ZL28Shell_CharIsMakeVariableNamec.exit.i:        ; preds = %.lr.ph.i
  %23 = sext i8 %22 to i32
  %24 = tail call i32 @isalpha(i32 noundef %23) #19
  %.not24.i = icmp eq i32 %24, 0
  br i1 %.not24.i, label %.critedge2.i, label %_ZL28Shell_CharIsMakeVariableNamec.exit.thread.i

_ZL28Shell_CharIsMakeVariableNamec.exit.thread.i: ; preds = %_ZL28Shell_CharIsMakeVariableNamec.exit.i, %.lr.ph.i
  %25 = getelementptr inbounds i8, ptr %.030.i, i64 1
  %.not22.i = icmp eq ptr %25, %5
  br i1 %.not22.i, label %_ZN17cmOutputConverter23Shell_SkipMakeVariablesEPKcS1_.exit, label %.lr.ph.i, !llvm.loop !12

.critedge2.i:                                     ; preds = %_ZL28Shell_CharIsMakeVariableNamec.exit.i
  %26 = icmp eq i8 %22, 41
  br i1 %26, label %12, label %_ZN17cmOutputConverter23Shell_SkipMakeVariablesEPKcS1_.exit

_ZN17cmOutputConverter23Shell_SkipMakeVariablesEPKcS1_.exit: ; preds = %.lr.ph.i, %_ZL28Shell_CharIsMakeVariableNamec.exit.thread.i, %.lr.ph37.i, %15, %18, %.critedge2.i
  %27 = icmp eq ptr %.01836.i, %5
  br i1 %27, label %_ZN17cmOutputConverter23Shell_SkipMakeVariablesEPKcS1_.exit.thread, label %28

28:                                               ; preds = %_ZN17cmOutputConverter23Shell_SkipMakeVariablesEPKcS1_.exit
  %29 = load i8, ptr %.01836.i, align 1
  %30 = tail call noundef zeroext i1 @_ZN17cmOutputConverter21Shell_CharNeedsQuotesEci(i8 noundef signext %29, i32 noundef %2)
  br i1 %30, label %.loopexit, label %11

_ZN17cmOutputConverter23Shell_SkipMakeVariablesEPKcS1_.exit.thread: ; preds = %11, %_ZN17cmOutputConverter23Shell_SkipMakeVariablesEPKcS1_.exit, %12, %9
  %31 = and i32 %2, 256
  %.not33 = icmp ne i32 %31, 0
  %32 = icmp eq i64 %0, 1
  %or.cond48 = and i1 %32, %.not33
  br i1 %or.cond48, label %33, label %35

33:                                               ; preds = %_ZN17cmOutputConverter23Shell_SkipMakeVariablesEPKcS1_.exit.thread
  %34 = load i8, ptr %1, align 1
  switch i8 %34, label %.thread47 [
    i8 124, label %.loopexit
    i8 94, label %.loopexit
    i8 63, label %.loopexit
    i8 38, label %.loopexit
    i8 35, label %.loopexit
  ]

35:                                               ; preds = %_ZN17cmOutputConverter23Shell_SkipMakeVariablesEPKcS1_.exit.thread
  %36 = and i32 %2, 17
  %or.cond.not50 = icmp eq i32 %36, 17
  %37 = icmp ne i64 %0, 1
  %or.cond49 = and i1 %37, %or.cond.not50
  br i1 %or.cond49, label %38, label %.thread47

38:                                               ; preds = %35
  %39 = load i8, ptr %1, align 1
  %40 = icmp eq i8 %39, 92
  br i1 %40, label %41, label %.thread47

41:                                               ; preds = %38
  %42 = getelementptr inbounds i8, ptr %1, i64 1
  %43 = load i8, ptr %42, align 1
  %44 = icmp eq i8 %43, 92
  br i1 %44, label %.loopexit, label %.thread47

.thread47:                                        ; preds = %33, %38, %41, %35
  br label %.loopexit

.loopexit:                                        ; preds = %28, %.lr.ph.split.us, %41, %33, %33, %33, %33, %33, %3, %.thread47
  %.0 = phi i1 [ false, %.thread47 ], [ true, %3 ], [ true, %33 ], [ true, %33 ], [ true, %33 ], [ true, %33 ], [ true, %33 ], [ true, %41 ], [ true, %.lr.ph.split.us ], [ true, %28 ]
  ret i1 %.0
}